target datalayout = "e-m:e-p270:32:32-p271:32:32-p272:64:64-i64:64-i128:128-f80:128-n8:16:32:64-S128"
target triple = "x86_64-pc-linux-gnu"

%struct.listNode = type { ptr, ptr, ptr }
%struct.RedisModule = type { ptr, ptr, i32, i32, ptr, ptr, ptr, ptr, ptr, i32, i32, i32, i32, i32, ptr, ptr, ptr, ptr, ptr, i32, i32, i64 }
%struct.listIter = type { ptr, i32 }
%struct.RedisModuleType = type { i64, ptr, ptr, ptr, ptr, ptr, ptr, ptr, ptr, ptr, ptr, ptr, ptr, ptr, ptr, ptr, ptr, ptr, ptr, i32, [10 x i8] }

@modules = dso_local global ptr null, align 8

; Function Attrs: nounwind uwtable
define dso_local i64 @rdbSaveModulesAux(ptr noundef %0, i32 noundef %1) #0 {
  %3 = alloca i64, align 8
  %4 = alloca ptr, align 8
  %5 = alloca i32, align 4
  %6 = alloca i64, align 8
  %7 = alloca ptr, align 8
  %8 = alloca ptr, align 8
  %9 = alloca ptr, align 8
  %10 = alloca %struct.listIter, align 8
  %11 = alloca ptr, align 8
  %12 = alloca ptr, align 8
  %13 = alloca i32, align 4
  %14 = alloca i64, align 8
  store ptr %0, ptr %4, align 8, !tbaa !533
  store i32 %1, ptr %5, align 4, !tbaa !29
  call void @llvm.lifetime.start.p0(i64 8, ptr %6) #15
  store i64 0, ptr %6, align 8, !tbaa !5
  call void @llvm.lifetime.start.p0(i64 8, ptr %7) #15
  %15 = load ptr, ptr @modules, align 8, !tbaa !258
  %16 = call ptr @dictGetIterator(ptr noundef %15)
  store ptr %16, ptr %7, align 8, !tbaa !457
  call void @llvm.lifetime.start.p0(i64 8, ptr %8) #15
  br label %17

17:                                               ; preds = %71, %2
  %18 = load ptr, ptr %7, align 8, !tbaa !457
  %19 = call ptr @dictNext(ptr noundef %18)
  store ptr %19, ptr %8, align 8, !tbaa !94
  %20 = icmp ne ptr %19, null
  br i1 %20, label %21, label %72

21:                                               ; preds = %17
  call void @llvm.lifetime.start.p0(i64 8, ptr %9) #15
  %22 = load ptr, ptr %8, align 8, !tbaa !94
  %23 = call ptr @dictGetVal(ptr noundef %22)
  store ptr %23, ptr %9, align 8, !tbaa !115
  call void @llvm.lifetime.start.p0(i64 16, ptr %10) #15
  call void @llvm.lifetime.start.p0(i64 8, ptr %11) #15
  %24 = load ptr, ptr %9, align 8, !tbaa !115
  %25 = getelementptr inbounds nuw %struct.RedisModule, ptr %24, i32 0, i32 4
  %26 = load ptr, ptr %25, align 8, !tbaa !266
  call void @listRewind(ptr noundef %26, ptr noundef %10)
  br label %27

27:                                               ; preds = %67, %65, %21
  %28 = call ptr @listNext(ptr noundef %10)
  store ptr %28, ptr %11, align 8, !tbaa !448
  %29 = icmp ne ptr %28, null
  br i1 %29, label %30, label %68

30:                                               ; preds = %27
  call void @llvm.lifetime.start.p0(i64 8, ptr %12) #15
  %31 = load ptr, ptr %11, align 8, !tbaa !448
  %32 = getelementptr inbounds nuw %struct.listNode, ptr %31, i32 0, i32 2
  %33 = load ptr, ptr %32, align 8, !tbaa !133
  store ptr %33, ptr %12, align 8, !tbaa !459
  %34 = load ptr, ptr %12, align 8, !tbaa !459
  %35 = getelementptr inbounds nuw %struct.RedisModuleType, ptr %34, i32 0, i32 13
  %36 = load ptr, ptr %35, align 8, !tbaa !502
  %37 = icmp ne ptr %36, null
  br i1 %37, label %43, label %38

38:                                               ; preds = %30
  %39 = load ptr, ptr %12, align 8, !tbaa !459
  %40 = getelementptr inbounds nuw %struct.RedisModuleType, ptr %39, i32 0, i32 18
  %41 = load ptr, ptr %40, align 8, !tbaa !520
  %42 = icmp ne ptr %41, null
  br i1 %42, label %43, label %50

43:                                               ; preds = %38, %30
  %44 = load ptr, ptr %12, align 8, !tbaa !459
  %45 = getelementptr inbounds nuw %struct.RedisModuleType, ptr %44, i32 0, i32 19
  %46 = load i32, ptr %45, align 8, !tbaa !504
  %47 = load i32, ptr %5, align 4, !tbaa !29
  %48 = and i32 %46, %47
  %49 = icmp ne i32 %48, 0
  br i1 %49, label %51, label %50

50:                                               ; preds = %43, %38
  store i32 4, ptr %13, align 4
  br label %65, !llvm.loop !534

51:                                               ; preds = %43
  call void @llvm.lifetime.start.p0(i64 8, ptr %14) #15
  %52 = load ptr, ptr %4, align 8, !tbaa !533
  %53 = load i32, ptr %5, align 4, !tbaa !29
  %54 = load ptr, ptr %12, align 8, !tbaa !459
  %55 = call i64 @rdbSaveSingleModuleAux(ptr noundef %52, i32 noundef %53, ptr noundef %54)
  store i64 %55, ptr %14, align 8, !tbaa !5
  %56 = load i64, ptr %14, align 8, !tbaa !5
  %57 = icmp eq i64 %56, -1
  br i1 %57, label %58, label %60

58:                                               ; preds = %51
  %59 = load ptr, ptr %7, align 8, !tbaa !457
  call void @dictReleaseIterator(ptr noundef %59)
  store i64 -1, ptr %3, align 8
  store i32 1, ptr %13, align 4
  br label %64

60:                                               ; preds = %51
  %61 = load i64, ptr %14, align 8, !tbaa !5
  %62 = load i64, ptr %6, align 8, !tbaa !5
  %63 = add i64 %62, %61
  store i64 %63, ptr %6, align 8, !tbaa !5
  store i32 0, ptr %13, align 4
  br label %64

64:                                               ; preds = %60, %58
  call void @llvm.lifetime.end.p0(i64 8, ptr %14) #15
  br label %65

65:                                               ; preds = %64, %50
  call void @llvm.lifetime.end.p0(i64 8, ptr %12) #15
  %66 = load i32, ptr %13, align 4
  switch i32 %66, label %69 [
    i32 0, label %67
    i32 4, label %27
  ]

67:                                               ; preds = %65
  br label %27, !llvm.loop !534

68:                                               ; preds = %27
  store i32 0, ptr %13, align 4
  br label %69

69:                                               ; preds = %68, %65
  call void @llvm.lifetime.end.p0(i64 8, ptr %11) #15
  call void @llvm.lifetime.end.p0(i64 16, ptr %10) #15
  call void @llvm.lifetime.end.p0(i64 8, ptr %9) #15
  %70 = load i32, ptr %13, align 4
  switch i32 %70, label %75 [
    i32 0, label %71
  ]

71:                                               ; preds = %69
  br label %17, !llvm.loop !535

72:                                               ; preds = %17
  %73 = load ptr, ptr %7, align 8, !tbaa !457
  call void @dictReleaseIterator(ptr noundef %73)
  %74 = load i64, ptr %6, align 8, !tbaa !5
  store i64 %74, ptr %3, align 8
  store i32 1, ptr %13, align 4
  br label %75

75:                                               ; preds = %72, %69
  call void @llvm.lifetime.end.p0(i64 8, ptr %8) #15
  call void @llvm.lifetime.end.p0(i64 8, ptr %7) #15
  call void @llvm.lifetime.end.p0(i64 8, ptr %6) #15
  %76 = load i64, ptr %3, align 8
  ret i64 %76
}