; Function Attrs: nounwind uwtable
define dso_local i64 @rdbSaveModulesAux(ptr noundef %0, i32 noundef %1) local_unnamed_addr #0 {
  %3 = alloca %struct.listIter, align 8
  %4 = load ptr, ptr @modules, align 8, !tbaa !241
  %5 = tail call ptr @dictGetIterator(ptr noundef %4) #35
  %6 = tail call ptr @dictNext(ptr noundef %5) #35
  %.not44 = icmp eq ptr %6, null
  br i1 %.not44, label %._crit_edge48, label %.lr.ph47

.lr.ph47:                                         ; preds = %2, %._crit_edge
  %7 = phi ptr [ %31, %._crit_edge ], [ %6, %2 ]
  %.02245 = phi i64 [ %.123.lcssa, %._crit_edge ], [ 0, %2 ]
  %8 = call ptr @dictGetVal(ptr noundef nonnull %7) #35
  call void @llvm.lifetime.start.p0(i64 16, ptr nonnull %3) #35
  %9 = getelementptr inbounds nuw i8, ptr %8, i64 24
  %10 = load ptr, ptr %9, align 8, !tbaa !247
  call void @listRewind(ptr noundef %10, ptr noundef nonnull %3) #35
  %11 = call ptr @listNext(ptr noundef nonnull %3) #35
  %.not3042 = icmp eq ptr %11, null
  br i1 %.not3042, label %._crit_edge, label %.lr.ph

.lr.ph:                                           ; preds = %.lr.ph47, %29
  %12 = phi ptr [ %30, %29 ], [ %11, %.lr.ph47 ]
  %.12343 = phi i64 [ %.224, %29 ], [ %.02245, %.lr.ph47 ]
  %13 = getelementptr inbounds nuw i8, ptr %12, i64 16
  %14 = load ptr, ptr %13, align 8, !tbaa !124
  %15 = getelementptr inbounds nuw i8, ptr %14, i64 104
  %16 = load ptr, ptr %15, align 8, !tbaa !419
  %.not31 = icmp eq ptr %16, null
  br i1 %.not31, label %17, label %20

17:                                               ; preds = %.lr.ph
  %18 = getelementptr inbounds nuw i8, ptr %14, i64 144
  %19 = load ptr, ptr %18, align 8, !tbaa !437
  %.not32 = icmp eq ptr %19, null
  br i1 %.not32, label %29, label %20, !llvm.loop !450

20:                                               ; preds = %17, %.lr.ph
  %21 = getelementptr inbounds nuw i8, ptr %14, i64 152
  %22 = load i32, ptr %21, align 8, !tbaa !421
  %23 = and i32 %22, %1
  %.not33 = icmp eq i32 %23, 0
  br i1 %.not33, label %29, label %24, !llvm.loop !450

24:                                               ; preds = %20
  %25 = call i64 @rdbSaveSingleModuleAux(ptr noundef %0, i32 noundef %1, ptr noundef nonnull %14) #35
  %26 = icmp eq i64 %25, -1
  br i1 %26, label %.thread36, label %27

.thread36:                                        ; preds = %24
  call void @dictReleaseIterator(ptr noundef %5) #35
  call void @llvm.lifetime.end.p0(i64 16, ptr nonnull %3) #35
  br label %32

27:                                               ; preds = %24
  %28 = add i64 %25, %.12343
  br label %29

29:                                               ; preds = %27, %17, %20
  %.224 = phi i64 [ %.12343, %20 ], [ %.12343, %17 ], [ %28, %27 ]
  %30 = call ptr @listNext(ptr noundef nonnull %3) #35
  %.not30 = icmp eq ptr %30, null
  br i1 %.not30, label %._crit_edge, label %.lr.ph

._crit_edge:                                      ; preds = %29, %.lr.ph47
  %.123.lcssa = phi i64 [ %.02245, %.lr.ph47 ], [ %.224, %29 ]
  call void @llvm.lifetime.end.p0(i64 16, ptr nonnull %3) #35
  %31 = call ptr @dictNext(ptr noundef %5) #35
  %.not = icmp eq ptr %31, null
  br i1 %.not, label %._crit_edge48, label %.lr.ph47, !llvm.loop !451

._crit_edge48:                                    ; preds = %._crit_edge, %2
  %.022.lcssa = phi i64 [ 0, %2 ], [ %.123.lcssa, %._crit_edge ]
  call void @dictReleaseIterator(ptr noundef %5) #35
  br label %32

32:                                               ; preds = %.thread36, %._crit_edge48
  %.5 = phi i64 [ %.022.lcssa, %._crit_edge48 ], [ -1, %.thread36 ]
  ret i64 %.5
}